target datalayout = "e-m:e-p270:32:32-p271:32:32-p272:64:64-i64:64-i128:128-f80:128-n8:16:32:64-S128"
target triple = "x86_64-pc-linux-gnu"

%struct.mbedtls_des3_context = type { [96 x i32] }

; Function Attrs: nounwind uwtable
define internal void @des3_set2key(ptr noundef %0, ptr noundef %1, ptr noundef %2) #0 {
  %4 = alloca ptr, align 8
  %5 = alloca ptr, align 8
  %6 = alloca ptr, align 8
  %7 = alloca i32, align 4
  store ptr %0, ptr %4, align 8, !tbaa !19
  store ptr %1, ptr %5, align 8, !tbaa !19
  store ptr %2, ptr %6, align 8, !tbaa !10
  call void @llvm.lifetime.start.p0(i64 4, ptr %7) #8
  %8 = load ptr, ptr %4, align 8, !tbaa !19
  %9 = load ptr, ptr %6, align 8, !tbaa !10
  call void @mbedtls_des_setkey(ptr noundef %8, ptr noundef %9)
  %10 = load ptr, ptr %5, align 8, !tbaa !19
  %11 = getelementptr inbounds i32, ptr %10, i64 32
  %12 = load ptr, ptr %6, align 8, !tbaa !10
  %13 = getelementptr inbounds i8, ptr %12, i64 8
  call void @mbedtls_des_setkey(ptr noundef %11, ptr noundef %13)
  store i32 0, ptr %7, align 4, !tbaa !12
  br label %14

14:                                               ; preds = %103, %3
  %15 = load i32, ptr %7, align 4, !tbaa !12
  %16 = icmp slt i32 %15, 32
  br i1 %16, label %17, label %106

17:                                               ; preds = %14
  %18 = load ptr, ptr %4, align 8, !tbaa !19
  %19 = load i32, ptr %7, align 4, !tbaa !12
  %20 = sub nsw i32 30, %19
  %21 = sext i32 %20 to i64
  %22 = getelementptr inbounds i32, ptr %18, i64 %21
  %23 = load i32, ptr %22, align 4, !tbaa !12
  %24 = load ptr, ptr %5, align 8, !tbaa !19
  %25 = load i32, ptr %7, align 4, !tbaa !12
  %26 = sext i32 %25 to i64
  %27 = getelementptr inbounds i32, ptr %24, i64 %26
  store i32 %23, ptr %27, align 4, !tbaa !12
  %28 = load ptr, ptr %4, align 8, !tbaa !19
  %29 = load i32, ptr %7, align 4, !tbaa !12
  %30 = sub nsw i32 31, %29
  %31 = sext i32 %30 to i64
  %32 = getelementptr inbounds i32, ptr %28, i64 %31
  %33 = load i32, ptr %32, align 4, !tbaa !12
  %34 = load ptr, ptr %5, align 8, !tbaa !19
  %35 = load i32, ptr %7, align 4, !tbaa !12
  %36 = add nsw i32 %35, 1
  %37 = sext i32 %36 to i64
  %38 = getelementptr inbounds i32, ptr %34, i64 %37
  store i32 %33, ptr %38, align 4, !tbaa !12
  %39 = load ptr, ptr %5, align 8, !tbaa !19
  %40 = load i32, ptr %7, align 4, !tbaa !12
  %41 = sub nsw i32 62, %40
  %42 = sext i32 %41 to i64
  %43 = getelementptr inbounds i32, ptr %39, i64 %42
  %44 = load i32, ptr %43, align 4, !tbaa !12
  %45 = load ptr, ptr %4, align 8, !tbaa !19
  %46 = load i32, ptr %7, align 4, !tbaa !12
  %47 = add nsw i32 %46, 32
  %48 = sext i32 %47 to i64
  %49 = getelementptr inbounds i32, ptr %45, i64 %48
  store i32 %44, ptr %49, align 4, !tbaa !12
  %50 = load ptr, ptr %5, align 8, !tbaa !19
  %51 = load i32, ptr %7, align 4, !tbaa !12
  %52 = sub nsw i32 63, %51
  %53 = sext i32 %52 to i64
  %54 = getelementptr inbounds i32, ptr %50, i64 %53
  %55 = load i32, ptr %54, align 4, !tbaa !12
  %56 = load ptr, ptr %4, align 8, !tbaa !19
  %57 = load i32, ptr %7, align 4, !tbaa !12
  %58 = add nsw i32 %57, 33
  %59 = sext i32 %58 to i64
  %60 = getelementptr inbounds i32, ptr %56, i64 %59
  store i32 %55, ptr %60, align 4, !tbaa !12
  %61 = load ptr, ptr %4, align 8, !tbaa !19
  %62 = load i32, ptr %7, align 4, !tbaa !12
  %63 = sext i32 %62 to i64
  %64 = getelementptr inbounds i32, ptr %61, i64 %63
  %65 = load i32, ptr %64, align 4, !tbaa !12
  %66 = load ptr, ptr %4, align 8, !tbaa !19
  %67 = load i32, ptr %7, align 4, !tbaa !12
  %68 = add nsw i32 %67, 64
  %69 = sext i32 %68 to i64
  %70 = getelementptr inbounds i32, ptr %66, i64 %69
  store i32 %65, ptr %70, align 4, !tbaa !12
  %71 = load ptr, ptr %4, align 8, !tbaa !19
  %72 = load i32, ptr %7, align 4, !tbaa !12
  %73 = add nsw i32 %72, 1
  %74 = sext i32 %73 to i64
  %75 = getelementptr inbounds i32, ptr %71, i64 %74
  %76 = load i32, ptr %75, align 4, !tbaa !12
  %77 = load ptr, ptr %4, align 8, !tbaa !19
  %78 = load i32, ptr %7, align 4, !tbaa !12
  %79 = add nsw i32 %78, 65
  %80 = sext i32 %79 to i64
  %81 = getelementptr inbounds i32, ptr %77, i64 %80
  store i32 %76, ptr %81, align 4, !tbaa !12
  %82 = load ptr, ptr %5, align 8, !tbaa !19
  %83 = load i32, ptr %7, align 4, !tbaa !12
  %84 = sext i32 %83 to i64
  %85 = getelementptr inbounds i32, ptr %82, i64 %84
  %86 = load i32, ptr %85, align 4, !tbaa !12
  %87 = load ptr, ptr %5, align 8, !tbaa !19
  %88 = load i32, ptr %7, align 4, !tbaa !12
  %89 = add nsw i32 %88, 64
  %90 = sext i32 %89 to i64
  %91 = getelementptr inbounds i32, ptr %87, i64 %90
  store i32 %86, ptr %91, align 4, !tbaa !12
  %92 = load ptr, ptr %5, align 8, !tbaa !19
  %93 = load i32, ptr %7, align 4, !tbaa !12
  %94 = add nsw i32 %93, 1
  %95 = sext i32 %94 to i64
  %96 = getelementptr inbounds i32, ptr %92, i64 %95
  %97 = load i32, ptr %96, align 4, !tbaa !12
  %98 = load ptr, ptr %5, align 8, !tbaa !19
  %99 = load i32, ptr %7, align 4, !tbaa !12
  %100 = add nsw i32 %99, 65
  %101 = sext i32 %100 to i64
  %102 = getelementptr inbounds i32, ptr %98, i64 %101
  store i32 %97, ptr %102, align 4, !tbaa !12
  br label %103

103:                                              ; preds = %17
  %104 = load i32, ptr %7, align 4, !tbaa !12
  %105 = add nsw i32 %104, 2
  store i32 %105, ptr %7, align 4, !tbaa !12
  br label %14, !llvm.loop !24

106:                                              ; preds = %14
  call void @llvm.lifetime.end.p0(i64 4, ptr %7) #8
  ret void
}

; Function Attrs: nounwind uwtable
define hidden i32 @mbedtls_des3_set2key_dec(ptr noundef %0, ptr noundef %1) #0 {
  %3 = alloca ptr, align 8
  %4 = alloca ptr, align 8
  %5 = alloca [96 x i32], align 16
  store ptr %0, ptr %3, align 8, !tbaa !8
  store ptr %1, ptr %4, align 8, !tbaa !10
  call void @llvm.lifetime.start.p0(i64 384, ptr %5) #8
  %6 = getelementptr inbounds [96 x i32], ptr %5, i64 0, i64 0
  %7 = load ptr, ptr %3, align 8, !tbaa !8
  %8 = getelementptr inbounds nuw %struct.mbedtls_des3_context, ptr %7, i32 0, i32 0
  %9 = getelementptr inbounds [96 x i32], ptr %8, i64 0, i64 0
  %10 = load ptr, ptr %4, align 8, !tbaa !10
  call void @des3_set2key(ptr noundef %6, ptr noundef %9, ptr noundef %10)
  %11 = getelementptr inbounds [96 x i32], ptr %5, i64 0, i64 0
  call void @mbedtls_platform_zeroize(ptr noundef %11, i64 noundef 384)
  call void @llvm.lifetime.end.p0(i64 384, ptr %5) #8
  ret i32 0
}