; Function Attrs: nounwind uwtable
define hidden noundef i32 @mbedtls_des3_set2key_dec(ptr noundef captures(none) %0, ptr noundef readonly captures(none) %1) local_unnamed_addr #2 {
  %3 = alloca [96 x i32], align 16
  call void @llvm.lifetime.start.p0(i64 384, ptr nonnull %3) #13
  call void @mbedtls_des_setkey(ptr noundef nonnull %3, ptr noundef readonly %1)
  %4 = getelementptr inbounds nuw i8, ptr %0, i64 128
  %5 = getelementptr inbounds nuw i8, ptr %1, i64 8
  tail call void @mbedtls_des_setkey(ptr noundef nonnull %4, ptr noundef nonnull readonly %5)
  br label %6

6:                                                ; preds = %6, %2
  %indvars.iv.i = phi i64 [ 0, %2 ], [ %indvars.iv.next.i, %6 ]
  %7 = sub nuw nsw i64 30, %indvars.iv.i
  %8 = getelementptr inbounds nuw i32, ptr %3, i64 %7
  %9 = load i32, ptr %8, align 8, !tbaa !10
  %10 = getelementptr inbounds nuw i32, ptr %0, i64 %indvars.iv.i
  store i32 %9, ptr %10, align 4, !tbaa !10
  %11 = sub nuw nsw i64 31, %indvars.iv.i
  %12 = getelementptr inbounds nuw i32, ptr %3, i64 %11
  %13 = load i32, ptr %12, align 4, !tbaa !10
  %14 = or disjoint i64 %indvars.iv.i, 1
  %15 = getelementptr inbounds nuw i32, ptr %0, i64 %14
  store i32 %13, ptr %15, align 4, !tbaa !10
  %16 = sub nuw nsw i64 62, %indvars.iv.i
  %17 = getelementptr inbounds nuw i32, ptr %0, i64 %16
  %18 = load i32, ptr %17, align 4, !tbaa !10
  %19 = or disjoint i64 %indvars.iv.i, 32
  %20 = getelementptr inbounds nuw i32, ptr %3, i64 %19
  store i32 %18, ptr %20, align 8, !tbaa !10
  %21 = sub nuw nsw i64 63, %indvars.iv.i
  %22 = getelementptr inbounds nuw i32, ptr %0, i64 %21
  %23 = load i32, ptr %22, align 4, !tbaa !10
  %24 = or disjoint i64 %indvars.iv.i, 33
  %25 = getelementptr inbounds nuw i32, ptr %3, i64 %24
  store i32 %23, ptr %25, align 4, !tbaa !10
  %26 = getelementptr inbounds nuw i32, ptr %3, i64 %indvars.iv.i
  %27 = load i32, ptr %26, align 8, !tbaa !10
  %28 = or disjoint i64 %indvars.iv.i, 64
  %29 = getelementptr inbounds nuw i32, ptr %3, i64 %28
  store i32 %27, ptr %29, align 8, !tbaa !10
  %30 = getelementptr inbounds nuw i32, ptr %3, i64 %14
  %31 = load i32, ptr %30, align 4, !tbaa !10
  %32 = or disjoint i64 %indvars.iv.i, 65
  %33 = getelementptr inbounds nuw i32, ptr %3, i64 %32
  store i32 %31, ptr %33, align 4, !tbaa !10
  %34 = getelementptr inbounds nuw i32, ptr %0, i64 %28
  store i32 %9, ptr %34, align 4, !tbaa !10
  %35 = getelementptr inbounds nuw i32, ptr %0, i64 %32
  store i32 %13, ptr %35, align 4, !tbaa !10
  %indvars.iv.next.i = add nuw nsw i64 %indvars.iv.i, 2
  %36 = icmp samesign ult i64 %indvars.iv.i, 30
  br i1 %36, label %6, label %des3_set2key.exit, !llvm.loop !14

des3_set2key.exit:                                ; preds = %6
  call void @mbedtls_platform_zeroize(ptr noundef nonnull %3, i64 noundef 384) #13
  call void @llvm.lifetime.end.p0(i64 384, ptr nonnull %3) #13
  ret i32 0
}